; Function Attrs: nofree norecurse nosync nounwind memory(read, argmem: readwrite, inaccessiblemem: none) uwtable
define i32 @ff_opus_rc_dec_cdf(ptr noundef captures(none) %0, ptr noundef readonly captures(none) %1) local_unnamed_addr #0 {
  %3 = getelementptr inbounds nuw i8, ptr %1, i64 2
  %4 = load i16, ptr %1, align 2, !tbaa !4
  %5 = zext i16 %4 to i32
  %6 = getelementptr inbounds nuw i8, ptr %0, i64 56
  %7 = load i32, ptr %6, align 8, !tbaa !8
  %8 = udiv i32 %7, %5
  %9 = getelementptr inbounds nuw i8, ptr %0, i64 60
  %10 = load i32, ptr %9, align 4, !tbaa !15
  %11 = udiv i32 %10, %8
  %12 = add i32 %11, 1
  %13 = tail call i32 @llvm.usub.sat.i32(i32 %5, i32 %12)
  br label %14

14:                                               ; preds = %14, %2
  %.0 = phi i32 [ 0, %2 ], [ %19, %14 ]
  %15 = zext i32 %.0 to i64
  %16 = getelementptr inbounds nuw i16, ptr %3, i64 %15
  %17 = load i16, ptr %16, align 2, !tbaa !4
  %18 = zext i16 %17 to i32
  %.not = icmp samesign ult i32 %13, %18
  %19 = add i32 %.0, 1
  br i1 %.not, label %20, label %14, !llvm.loop !16

20:                                               ; preds = %14
  %.not25 = icmp eq i32 %.0, 0
  br i1 %.not25, label %.thread, label %24

.thread:                                          ; preds = %20
  %21 = sub nsw i32 %5, %18
  %22 = mul i32 %21, %8
  %23 = sub i32 %10, %22
  store i32 %23, ptr %9, align 4, !tbaa !15
  br label %36

24:                                               ; preds = %20
  %25 = add i32 %.0, -1
  %26 = zext i32 %25 to i64
  %27 = getelementptr inbounds nuw i16, ptr %3, i64 %26
  %28 = load i16, ptr %27, align 2, !tbaa !4
  %29 = sub nsw i32 %5, %18
  %30 = mul i32 %29, %8
  %31 = sub i32 %10, %30
  store i32 %31, ptr %9, align 4, !tbaa !15
  %.not.i = icmp eq i16 %28, 0
  br i1 %.not.i, label %36, label %32

32:                                               ; preds = %24
  %33 = zext i16 %28 to i32
  %34 = sub nsw i32 %18, %33
  %35 = mul i32 %34, %8
  br label %opus_rc_dec_update.exit

36:                                               ; preds = %.thread, %24
  %.promoted30 = phi i32 [ %23, %.thread ], [ %31, %24 ]
  %37 = phi i32 [ %22, %.thread ], [ %30, %24 ]
  %38 = sub i32 %7, %37
  br label %opus_rc_dec_update.exit

opus_rc_dec_update.exit:                          ; preds = %32, %36
  %.promoted = phi i32 [ %31, %32 ], [ %.promoted30, %36 ]
  %39 = phi i32 [ %35, %32 ], [ %38, %36 ]
  store i32 %39, ptr %6, align 8, !tbaa !8
  %40 = icmp ult i32 %39, 8388609
  br i1 %40, label %.lr.ph, label %opus_rc_dec_normalize.exit

.lr.ph:                                           ; preds = %opus_rc_dec_update.exit
  %41 = getelementptr inbounds nuw i8, ptr %0, i64 16
  %42 = getelementptr inbounds nuw i8, ptr %0, i64 24
  %43 = load i32, ptr %42, align 8, !tbaa !18
  %44 = load ptr, ptr %0, align 8, !tbaa !19
  %45 = getelementptr inbounds nuw i8, ptr %0, i64 64
  %.promoted27 = load i32, ptr %41, align 8, !tbaa !20
  %.promoted28 = load i32, ptr %45, align 8, !tbaa !21
  br label %46

46:                                               ; preds = %.lr.ph, %46
  %47 = phi i32 [ %.promoted28, %.lr.ph ], [ %65, %46 ]
  %48 = phi i32 [ %.promoted27, %.lr.ph ], [ %61, %46 ]
  %49 = phi i32 [ %.promoted, %.lr.ph ], [ %63, %46 ]
  %50 = phi i32 [ %39, %.lr.ph ], [ %64, %46 ]
  %51 = shl i32 %49, 8
  %52 = lshr i32 %48, 3
  %53 = zext nneg i32 %52 to i64
  %54 = getelementptr inbounds nuw i8, ptr %44, i64 %53
  %55 = load i32, ptr %54, align 1, !tbaa !22
  %56 = tail call i32 @llvm.bswap.i32(i32 %55)
  %57 = and i32 %48, 7
  %58 = shl i32 %56, %57
  %59 = lshr i32 %58, 24
  %60 = add i32 %48, 8
  %61 = tail call i32 @llvm.umin.i32(i32 %43, i32 %60)
  store i32 %61, ptr %41, align 8, !tbaa !20
  %.masked.i = and i32 %51, 2147483392
  %62 = or disjoint i32 %59, %.masked.i
  %63 = xor i32 %62, 255
  store i32 %63, ptr %9, align 4, !tbaa !15
  %64 = shl nuw i32 %50, 8
  store i32 %64, ptr %6, align 8, !tbaa !8
  %65 = add i32 %47, 8
  store i32 %65, ptr %45, align 8, !tbaa !21
  %66 = icmp ult i32 %50, 32769
  br i1 %66, label %46, label %opus_rc_dec_normalize.exit, !llvm.loop !23

opus_rc_dec_normalize.exit:                       ; preds = %46, %opus_rc_dec_update.exit
  ret i32 %.0
}